; Function Attrs: mustprogress nounwind uwtable
define dso_local void @_ZN4llvm11SlotTracker27processGlobalObjectMetadataERKNS_12GlobalObjectE(ptr noundef nonnull align 8 dereferenceable(356) %0, ptr noundef nonnull align 8 dereferenceable(56) %1) local_unnamed_addr #1 align 2 {
  %3 = alloca %"class.llvm::SmallVector.206", align 8
  %4 = getelementptr inbounds i8, ptr %3, i64 16
  call void @_ZN4llvm15SmallVectorBaseIjEC2EPvm(ptr noundef nonnull align 8 dereferenceable(16) %3, ptr noundef nonnull %4, i64 noundef 4) #25
  call void @_ZNK4llvm5Value14getAllMetadataERNS_15SmallVectorImplISt4pairIjPNS_6MDNodeEEEE(ptr noundef nonnull align 8 dereferenceable(24) %1, ptr noundef nonnull align 8 dereferenceable(16) %3) #25
  %5 = load ptr, ptr %3, align 8
  %6 = call noundef i64 @_ZNK4llvm15SmallVectorBaseIjE4sizeEv(ptr noundef nonnull align 8 dereferenceable(16) %3) #25
  %7 = getelementptr inbounds %"struct.std::pair.211", ptr %5, i64 %6
  %.not9 = icmp eq i64 %6, 0
  br i1 %.not9, label %._crit_edge, label %.lr.ph

.lr.ph:                                           ; preds = %2, %.lr.ph
  %.010 = phi ptr [ %10, %.lr.ph ], [ %5, %2 ]
  %8 = getelementptr inbounds nuw i8, ptr %.010, i64 8
  %9 = load ptr, ptr %8, align 8
  call void @_ZN4llvm11SlotTracker18CreateMetadataSlotEPKNS_6MDNodeE(ptr noundef nonnull align 8 dereferenceable(356) %0, ptr noundef %9)
  %10 = getelementptr inbounds i8, ptr %.010, i64 16
  %.not = icmp eq ptr %10, %7
  br i1 %.not, label %._crit_edge, label %.lr.ph

._crit_edge:                                      ; preds = %.lr.ph, %2
  %11 = call noundef i64 @_ZNK4llvm15SmallVectorBaseIjE4sizeEv(ptr noundef nonnull align 8 dereferenceable(16) %3) #25
  %12 = load ptr, ptr %3, align 8
  %13 = icmp eq ptr %12, %4
  br i1 %13, label %_ZN4llvm11SmallVectorISt4pairIjPNS_6MDNodeEELj4EED2Ev.exit, label %14

14:                                               ; preds = %._crit_edge
  call void @free(ptr noundef %12) #25
  br label %_ZN4llvm11SmallVectorISt4pairIjPNS_6MDNodeEELj4EED2Ev.exit

_ZN4llvm11SmallVectorISt4pairIjPNS_6MDNodeEELj4EED2Ev.exit: ; preds = %._crit_edge, %14
  ret void
}